target datalayout = "e-m:e-p270:32:32-p271:32:32-p272:64:64-i64:64-i128:128-f80:128-n8:16:32:64-S128"
target triple = "x86_64-unknown-linux-gnu"

%struct.MachineState = type { %struct.Object, ptr, ptr, ptr, i32, ptr, i8, i8, i8, i8, ptr, i8, i8, i8, ptr, ptr, ptr, ptr, ptr, i64, i64, i64, %struct.BootConfiguration, ptr, ptr, ptr, ptr, ptr, ptr, %struct.CpuTopology, ptr, ptr }
%struct.Object = type { ptr, ptr, ptr, i32, ptr }
%struct.BootConfiguration = type { ptr, ptr, i8, i8, ptr, i8, i64, i8, i64, i8, i8 }
%struct.CpuTopology = type { i32, i32, i32, i32, i32, i32, i32, i32, i32 }
%struct.SMPConfiguration = type { i8, i64, i8, i64, i8, i64, i8, i64, i8, i64, i8, i64, i8, i64, i8, i64, i8, i64 }

@error_abort = external global ptr, align 8
@.str.225 = private unnamed_addr constant [8 x i8] c"machine\00", align 1
@.str.226 = private unnamed_addr constant [98 x i8] c"/home/dtcxzyw/WorkSpace/Projects/compilers/llvm-opt-benchmark/bench/qemu/qemu/include/hw/boards.h\00", align 1
@__func__.MACHINE = private unnamed_addr constant [8 x i8] c"MACHINE\00", align 1

; Function Attrs: nounwind sspstrong uwtable
define internal ptr @MACHINE(ptr noundef %obj) #0 {
entry:
  %obj.addr = alloca ptr, align 8
  store ptr %obj, ptr %obj.addr, align 8
  %0 = load ptr, ptr %obj.addr, align 8
  %call = call ptr @object_dynamic_cast_assert(ptr noundef %0, ptr noundef @.str.225, ptr noundef @.str.226, i32 noundef 23, ptr noundef @__func__.MACHINE)
  ret ptr %call
}

; Function Attrs: nounwind sspstrong uwtable
define internal void @machine_get_smp(ptr noundef %obj, ptr noundef %v, ptr noundef %name, ptr noundef %opaque, ptr noundef %errp) #0 {
entry:
  %obj.addr = alloca ptr, align 8
  %v.addr = alloca ptr, align 8
  %name.addr = alloca ptr, align 8
  %opaque.addr = alloca ptr, align 8
  %errp.addr = alloca ptr, align 8
  %ms = alloca ptr, align 8
  %config = alloca ptr, align 8
  %.compoundliteral = alloca %struct.SMPConfiguration, align 8
  store ptr %obj, ptr %obj.addr, align 8
  store ptr %v, ptr %v.addr, align 8
  store ptr %name, ptr %name.addr, align 8
  store ptr %opaque, ptr %opaque.addr, align 8
  store ptr %errp, ptr %errp.addr, align 8
  %0 = load ptr, ptr %obj.addr, align 8
  %call = call ptr @MACHINE(ptr noundef %0)
  store ptr %call, ptr %ms, align 8
  %has_cpus = getelementptr inbounds %struct.SMPConfiguration, ptr %.compoundliteral, i32 0, i32 0
  store i8 1, ptr %has_cpus, align 8
  %cpus = getelementptr inbounds %struct.SMPConfiguration, ptr %.compoundliteral, i32 0, i32 1
  %1 = load ptr, ptr %ms, align 8
  %smp = getelementptr inbounds %struct.MachineState, ptr %1, i32 0, i32 29
  %cpus1 = getelementptr inbounds %struct.CpuTopology, ptr %smp, i32 0, i32 0
  %2 = load i32, ptr %cpus1, align 8
  %conv = zext i32 %2 to i64
  store i64 %conv, ptr %cpus, align 8
  %has_drawers = getelementptr inbounds %struct.SMPConfiguration, ptr %.compoundliteral, i32 0, i32 2
  store i8 1, ptr %has_drawers, align 8
  %drawers = getelementptr inbounds %struct.SMPConfiguration, ptr %.compoundliteral, i32 0, i32 3
  %3 = load ptr, ptr %ms, align 8
  %smp2 = getelementptr inbounds %struct.MachineState, ptr %3, i32 0, i32 29
  %drawers3 = getelementptr inbounds %struct.CpuTopology, ptr %smp2, i32 0, i32 1
  %4 = load i32, ptr %drawers3, align 4
  %conv4 = zext i32 %4 to i64
  store i64 %conv4, ptr %drawers, align 8
  %has_books = getelementptr inbounds %struct.SMPConfiguration, ptr %.compoundliteral, i32 0, i32 4
  store i8 1, ptr %has_books, align 8
  %books = getelementptr inbounds %struct.SMPConfiguration, ptr %.compoundliteral, i32 0, i32 5
  %5 = load ptr, ptr %ms, align 8
  %smp5 = getelementptr inbounds %struct.MachineState, ptr %5, i32 0, i32 29
  %books6 = getelementptr inbounds %struct.CpuTopology, ptr %smp5, i32 0, i32 2
  %6 = load i32, ptr %books6, align 8
  %conv7 = zext i32 %6 to i64
  store i64 %conv7, ptr %books, align 8
  %has_sockets = getelementptr inbounds %struct.SMPConfiguration, ptr %.compoundliteral, i32 0, i32 6
  store i8 1, ptr %has_sockets, align 8
  %sockets = getelementptr inbounds %struct.SMPConfiguration, ptr %.compoundliteral, i32 0, i32 7
  %7 = load ptr, ptr %ms, align 8
  %smp8 = getelementptr inbounds %struct.MachineState, ptr %7, i32 0, i32 29
  %sockets9 = getelementptr inbounds %struct.CpuTopology, ptr %smp8, i32 0, i32 3
  %8 = load i32, ptr %sockets9, align 4
  %conv10 = zext i32 %8 to i64
  store i64 %conv10, ptr %sockets, align 8
  %has_dies = getelementptr inbounds %struct.SMPConfiguration, ptr %.compoundliteral, i32 0, i32 8
  store i8 1, ptr %has_dies, align 8
  %dies = getelementptr inbounds %struct.SMPConfiguration, ptr %.compoundliteral, i32 0, i32 9
  %9 = load ptr, ptr %ms, align 8
  %smp11 = getelementptr inbounds %struct.MachineState, ptr %9, i32 0, i32 29
  %dies12 = getelementptr inbounds %struct.CpuTopology, ptr %smp11, i32 0, i32 4
  %10 = load i32, ptr %dies12, align 8
  %conv13 = zext i32 %10 to i64
  store i64 %conv13, ptr %dies, align 8
  %has_clusters = getelementptr inbounds %struct.SMPConfiguration, ptr %.compoundliteral, i32 0, i32 10
  store i8 1, ptr %has_clusters, align 8
  %clusters = getelementptr inbounds %struct.SMPConfiguration, ptr %.compoundliteral, i32 0, i32 11
  %11 = load ptr, ptr %ms, align 8
  %smp14 = getelementptr inbounds %struct.MachineState, ptr %11, i32 0, i32 29
  %clusters15 = getelementptr inbounds %struct.CpuTopology, ptr %smp14, i32 0, i32 5
  %12 = load i32, ptr %clusters15, align 4
  %conv16 = zext i32 %12 to i64
  store i64 %conv16, ptr %clusters, align 8
  %has_cores = getelementptr inbounds %struct.SMPConfiguration, ptr %.compoundliteral, i32 0, i32 12
  store i8 1, ptr %has_cores, align 8
  %cores = getelementptr inbounds %struct.SMPConfiguration, ptr %.compoundliteral, i32 0, i32 13
  %13 = load ptr, ptr %ms, align 8
  %smp17 = getelementptr inbounds %struct.MachineState, ptr %13, i32 0, i32 29
  %cores18 = getelementptr inbounds %struct.CpuTopology, ptr %smp17, i32 0, i32 6
  %14 = load i32, ptr %cores18, align 8
  %conv19 = zext i32 %14 to i64
  store i64 %conv19, ptr %cores, align 8
  %has_threads = getelementptr inbounds %struct.SMPConfiguration, ptr %.compoundliteral, i32 0, i32 14
  store i8 1, ptr %has_threads, align 8
  %threads = getelementptr inbounds %struct.SMPConfiguration, ptr %.compoundliteral, i32 0, i32 15
  %15 = load ptr, ptr %ms, align 8
  %smp20 = getelementptr inbounds %struct.MachineState, ptr %15, i32 0, i32 29
  %threads21 = getelementptr inbounds %struct.CpuTopology, ptr %smp20, i32 0, i32 7
  %16 = load i32, ptr %threads21, align 4
  %conv22 = zext i32 %16 to i64
  store i64 %conv22, ptr %threads, align 8
  %has_maxcpus = getelementptr inbounds %struct.SMPConfiguration, ptr %.compoundliteral, i32 0, i32 16
  store i8 1, ptr %has_maxcpus, align 8
  %maxcpus = getelementptr inbounds %struct.SMPConfiguration, ptr %.compoundliteral, i32 0, i32 17
  %17 = load ptr, ptr %ms, align 8
  %smp23 = getelementptr inbounds %struct.MachineState, ptr %17, i32 0, i32 29
  %max_cpus = getelementptr inbounds %struct.CpuTopology, ptr %smp23, i32 0, i32 8
  %18 = load i32, ptr %max_cpus, align 8
  %conv24 = zext i32 %18 to i64
  store i64 %conv24, ptr %maxcpus, align 8
  store ptr %.compoundliteral, ptr %config, align 8
  %19 = load ptr, ptr %v.addr, align 8
  %20 = load ptr, ptr %name.addr, align 8
  %call25 = call zeroext i1 @visit_type_SMPConfiguration(ptr noundef %19, ptr noundef %20, ptr noundef %config, ptr noundef @error_abort)
  br i1 %call25, label %if.end, label %if.then

if.then:                                          ; preds = %entry
  br label %if.end

if.end:                                           ; preds = %if.then, %entry
  ret void
}