; Function Attrs: nounwind sspstrong uwtable
define internal void @machine_get_smp(ptr noundef %obj, ptr noundef %v, ptr noundef %name, ptr readnone captures(none) %opaque, ptr readnone captures(none) %errp) #0 {
entry:
  %config = alloca ptr, align 8
  %.compoundliteral = alloca %struct.SMPConfiguration, align 8
  %call.i = tail call ptr @object_dynamic_cast_assert(ptr noundef %obj, ptr noundef nonnull @.str.225, ptr noundef nonnull @.str.226, i32 noundef 23, ptr noundef nonnull @__func__.MACHINE) #16
  store i8 1, ptr %.compoundliteral, align 8
  %cpus = getelementptr inbounds nuw i8, ptr %.compoundliteral, i64 8
  %smp = getelementptr inbounds nuw i8, ptr %call.i, i64 288
  %0 = load i32, ptr %smp, align 8
  %conv = zext i32 %0 to i64
  store i64 %conv, ptr %cpus, align 8
  %has_drawers = getelementptr inbounds nuw i8, ptr %.compoundliteral, i64 16
  store i8 1, ptr %has_drawers, align 8
  %drawers = getelementptr inbounds nuw i8, ptr %.compoundliteral, i64 24
  %drawers3 = getelementptr inbounds nuw i8, ptr %call.i, i64 292
  %1 = load i32, ptr %drawers3, align 4
  %conv4 = zext i32 %1 to i64
  store i64 %conv4, ptr %drawers, align 8
  %has_books = getelementptr inbounds nuw i8, ptr %.compoundliteral, i64 32
  store i8 1, ptr %has_books, align 8
  %books = getelementptr inbounds nuw i8, ptr %.compoundliteral, i64 40
  %books6 = getelementptr inbounds nuw i8, ptr %call.i, i64 296
  %2 = load i32, ptr %books6, align 8
  %conv7 = zext i32 %2 to i64
  store i64 %conv7, ptr %books, align 8
  %has_sockets = getelementptr inbounds nuw i8, ptr %.compoundliteral, i64 48
  store i8 1, ptr %has_sockets, align 8
  %sockets = getelementptr inbounds nuw i8, ptr %.compoundliteral, i64 56
  %sockets9 = getelementptr inbounds nuw i8, ptr %call.i, i64 300
  %3 = load i32, ptr %sockets9, align 4
  %conv10 = zext i32 %3 to i64
  store i64 %conv10, ptr %sockets, align 8
  %has_dies = getelementptr inbounds nuw i8, ptr %.compoundliteral, i64 64
  store i8 1, ptr %has_dies, align 8
  %dies = getelementptr inbounds nuw i8, ptr %.compoundliteral, i64 72
  %dies12 = getelementptr inbounds nuw i8, ptr %call.i, i64 304
  %4 = load i32, ptr %dies12, align 8
  %conv13 = zext i32 %4 to i64
  store i64 %conv13, ptr %dies, align 8
  %has_clusters = getelementptr inbounds nuw i8, ptr %.compoundliteral, i64 80
  store i8 1, ptr %has_clusters, align 8
  %clusters = getelementptr inbounds nuw i8, ptr %.compoundliteral, i64 88
  %clusters15 = getelementptr inbounds nuw i8, ptr %call.i, i64 308
  %5 = load i32, ptr %clusters15, align 4
  %conv16 = zext i32 %5 to i64
  store i64 %conv16, ptr %clusters, align 8
  %has_cores = getelementptr inbounds nuw i8, ptr %.compoundliteral, i64 96
  store i8 1, ptr %has_cores, align 8
  %cores = getelementptr inbounds nuw i8, ptr %.compoundliteral, i64 104
  %cores18 = getelementptr inbounds nuw i8, ptr %call.i, i64 312
  %6 = load i32, ptr %cores18, align 8
  %conv19 = zext i32 %6 to i64
  store i64 %conv19, ptr %cores, align 8
  %has_threads = getelementptr inbounds nuw i8, ptr %.compoundliteral, i64 112
  store i8 1, ptr %has_threads, align 8
  %threads = getelementptr inbounds nuw i8, ptr %.compoundliteral, i64 120
  %threads21 = getelementptr inbounds nuw i8, ptr %call.i, i64 316
  %7 = load i32, ptr %threads21, align 4
  %conv22 = zext i32 %7 to i64
  store i64 %conv22, ptr %threads, align 8
  %has_maxcpus = getelementptr inbounds nuw i8, ptr %.compoundliteral, i64 128
  store i8 1, ptr %has_maxcpus, align 8
  %maxcpus = getelementptr inbounds nuw i8, ptr %.compoundliteral, i64 136
  %max_cpus = getelementptr inbounds nuw i8, ptr %call.i, i64 320
  %8 = load i32, ptr %max_cpus, align 8
  %conv24 = zext i32 %8 to i64
  store i64 %conv24, ptr %maxcpus, align 8
  store ptr %.compoundliteral, ptr %config, align 8
  %call25 = call zeroext i1 @visit_type_SMPConfiguration(ptr noundef %v, ptr noundef %name, ptr noundef nonnull %config, ptr noundef nonnull @error_abort) #16
  ret void
}